; Function Attrs: mustprogress uwtable
define noundef zeroext i8 @_ZN9grpc_core18HttpSchemeMetadata5ParseESt17basic_string_viewIcSt11char_traitsIcEEN4absl12lts_2023080211FunctionRefIFvS4_RKNS_5SliceEEEE(i64 %value.coerce0, ptr %value.coerce1, ptr %on_error.coerce0, ptr nocapture readonly %on_error.coerce1) local_unnamed_addr #3 align 2 personality ptr @__gxx_personality_v0 {
entry:
  %ref.tmp = alloca %"class.grpc_core::Slice", align 8
  switch i64 %value.coerce0, label %if.end6 [
    i64 4, label %_ZNSt11char_traitsIcE7compareEPKcS2_m.exit.i.i
    i64 5, label %_ZNSt11char_traitsIcE7compareEPKcS2_m.exit.i.i6
  ]

_ZNSt11char_traitsIcE7compareEPKcS2_m.exit.i.i:   ; preds = %entry
  %bcmp.i = tail call i32 @bcmp(ptr noundef nonnull dereferenceable(4) %value.coerce1, ptr noundef nonnull dereferenceable(4) @.str.13, i64 4)
  %cmp.i.i = icmp eq i32 %bcmp.i, 0
  br i1 %cmp.i.i, label %return, label %if.end6

_ZNSt11char_traitsIcE7compareEPKcS2_m.exit.i.i6:  ; preds = %entry
  %bcmp.i7 = tail call i32 @bcmp(ptr noundef nonnull dereferenceable(5) %value.coerce1, ptr noundef nonnull dereferenceable(5) @.str.14, i64 5)
  %cmp.i.i8 = icmp eq i32 %bcmp.i7, 0
  br i1 %cmp.i.i8, label %return, label %if.end6

if.end6:                                          ; preds = %_ZNSt11char_traitsIcE7compareEPKcS2_m.exit.i.i, %entry, %_ZNSt11char_traitsIcE7compareEPKcS2_m.exit.i.i6
  call void @grpc_slice_from_copied_buffer(ptr nonnull sret(%struct.grpc_slice) align 8 %ref.tmp, ptr noundef %value.coerce1, i64 noundef %value.coerce0)
  invoke void %on_error.coerce1(ptr %on_error.coerce0, i64 13, ptr nonnull @.str.6, ptr noundef nonnull align 8 dereferenceable(32) %ref.tmp)
          to label %invoke.cont unwind label %lpad

invoke.cont:                                      ; preds = %if.end6
  %0 = load ptr, ptr %ref.tmp, align 8
  %cmp.i.i13 = icmp ugt ptr %0, inttoptr (i64 1 to ptr)
  br i1 %cmp.i.i13, label %if.then.i.i14, label %return

if.then.i.i14:                                    ; preds = %invoke.cont
  %1 = atomicrmw sub ptr %0, i64 1 acq_rel, align 8
  %cmp.i.i.i = icmp eq i64 %1, 1
  br i1 %cmp.i.i.i, label %if.then.i.i.i, label %return

if.then.i.i.i:                                    ; preds = %if.then.i.i14
  %destroyer_fn_.i.i.i = getelementptr inbounds i8, ptr %0, i64 8
  %2 = load ptr, ptr %destroyer_fn_.i.i.i, align 8
  invoke void %2(ptr noundef nonnull %0)
          to label %return unwind label %terminate.lpad.i

terminate.lpad.i:                                 ; preds = %if.then.i.i.i
  %3 = landingpad { ptr, i32 }
          catch ptr null
  %4 = extractvalue { ptr, i32 } %3, 0
  call void @__clang_call_terminate(ptr %4) #19
  unreachable

lpad:                                             ; preds = %if.end6
  %5 = landingpad { ptr, i32 }
          cleanup
  call void @_ZN9grpc_core5SliceD2Ev(ptr noundef nonnull align 8 dereferenceable(32) %ref.tmp) #18
  resume { ptr, i32 } %5

return:                                           ; preds = %if.then.i.i.i, %if.then.i.i14, %invoke.cont, %_ZNSt11char_traitsIcE7compareEPKcS2_m.exit.i.i6, %_ZNSt11char_traitsIcE7compareEPKcS2_m.exit.i.i
  %retval.0 = phi i8 [ 0, %_ZNSt11char_traitsIcE7compareEPKcS2_m.exit.i.i ], [ 1, %_ZNSt11char_traitsIcE7compareEPKcS2_m.exit.i.i6 ], [ 2, %invoke.cont ], [ 2, %if.then.i.i14 ], [ 2, %if.then.i.i.i ]
  ret i8 %retval.0
}